target datalayout = "e-m:e-p270:32:32-p271:32:32-p272:64:64-i64:64-i128:128-f80:128-n8:16:32:64-S128"
target triple = "x86_64-pc-linux-gnu"

%struct._ir_array = type { ptr, i32 }
%struct._ir_list = type { %struct._ir_array, i32 }

; Function Attrs: nounwind uwtable
define hidden zeroext i1 @ir_list_contains(ptr noundef %0, i32 noundef %1) #0 {
  %3 = alloca ptr, align 8
  %4 = alloca i32, align 4
  %5 = alloca i1, align 1
  %6 = alloca ptr, align 8
  %7 = alloca i32, align 4
  %8 = alloca i32, align 4
  store ptr %0, ptr %6, align 8
  store i32 %1, ptr %7, align 4
  store i32 0, ptr %8, align 4
  br label %9

9:                                                ; preds = %29, %2
  %10 = load i32, ptr %8, align 4
  %11 = load ptr, ptr %6, align 8
  %12 = getelementptr inbounds %struct._ir_list, ptr %11, i32 0, i32 1
  %13 = load i32, ptr %12, align 8
  %14 = icmp ult i32 %10, %13
  br i1 %14, label %15, label %32

15:                                               ; preds = %9
  %16 = load ptr, ptr %6, align 8
  %17 = getelementptr inbounds %struct._ir_list, ptr %16, i32 0, i32 0
  %18 = load i32, ptr %8, align 4
  store ptr %17, ptr %3, align 8
  store i32 %18, ptr %4, align 4
  %19 = load ptr, ptr %3, align 8
  %20 = load ptr, ptr %19, align 8
  %21 = load i32, ptr %4, align 4
  %22 = zext i32 %21 to i64
  %23 = getelementptr inbounds i32, ptr %20, i64 %22
  %24 = load i32, ptr %23, align 4
  %25 = load i32, ptr %7, align 4
  %26 = icmp eq i32 %24, %25
  br i1 %26, label %27, label %28

27:                                               ; preds = %15
  store i1 true, ptr %5, align 1
  br label %33

28:                                               ; preds = %15
  br label %29

29:                                               ; preds = %28
  %30 = load i32, ptr %8, align 4
  %31 = add i32 %30, 1
  store i32 %31, ptr %8, align 4
  br label %9

32:                                               ; preds = %9
  store i1 false, ptr %5, align 1
  br label %33

33:                                               ; preds = %32, %27
  %34 = load i1, ptr %5, align 1
  ret i1 %34
}